target datalayout = "e-m:e-p270:32:32-p271:32:32-p272:64:64-i64:64-i128:128-f80:128-n8:16:32:64-S128"
target triple = "x86_64-pc-linux-gnu"

%struct.RangeCoder = type { i32, i32, i32, i32, [256 x i8], [256 x i8], ptr, ptr, ptr, i32 }

; Function Attrs: inlinehint nounwind uwtable
define internal void @refill(ptr noundef %0) #6 {
  %2 = alloca ptr, align 8
  store ptr %0, ptr %2, align 8, !tbaa !215
  %3 = load ptr, ptr %2, align 8, !tbaa !215
  %4 = getelementptr inbounds nuw %struct.RangeCoder, ptr %3, i32 0, i32 1
  %5 = load i32, ptr %4, align 4, !tbaa !219
  %6 = shl i32 %5, 8
  store i32 %6, ptr %4, align 4, !tbaa !219
  %7 = load ptr, ptr %2, align 8, !tbaa !215
  %8 = getelementptr inbounds nuw %struct.RangeCoder, ptr %7, i32 0, i32 0
  %9 = load i32, ptr %8, align 8, !tbaa !221
  %10 = shl i32 %9, 8
  store i32 %10, ptr %8, align 8, !tbaa !221
  %11 = load ptr, ptr %2, align 8, !tbaa !215
  %12 = getelementptr inbounds nuw %struct.RangeCoder, ptr %11, i32 0, i32 7
  %13 = load ptr, ptr %12, align 8, !tbaa !222
  %14 = load ptr, ptr %2, align 8, !tbaa !215
  %15 = getelementptr inbounds nuw %struct.RangeCoder, ptr %14, i32 0, i32 8
  %16 = load ptr, ptr %15, align 8, !tbaa !223
  %17 = icmp ult ptr %13, %16
  br i1 %17, label %18, label %33

18:                                               ; preds = %1
  %19 = load ptr, ptr %2, align 8, !tbaa !215
  %20 = getelementptr inbounds nuw %struct.RangeCoder, ptr %19, i32 0, i32 7
  %21 = load ptr, ptr %20, align 8, !tbaa !222
  %22 = getelementptr inbounds i8, ptr %21, i64 0
  %23 = load i8, ptr %22, align 1, !tbaa !132
  %24 = zext i8 %23 to i32
  %25 = load ptr, ptr %2, align 8, !tbaa !215
  %26 = getelementptr inbounds nuw %struct.RangeCoder, ptr %25, i32 0, i32 0
  %27 = load i32, ptr %26, align 8, !tbaa !221
  %28 = add nsw i32 %27, %24
  store i32 %28, ptr %26, align 8, !tbaa !221
  %29 = load ptr, ptr %2, align 8, !tbaa !215
  %30 = getelementptr inbounds nuw %struct.RangeCoder, ptr %29, i32 0, i32 7
  %31 = load ptr, ptr %30, align 8, !tbaa !222
  %32 = getelementptr inbounds nuw i8, ptr %31, i32 1
  store ptr %32, ptr %30, align 8, !tbaa !222
  br label %38

33:                                               ; preds = %1
  %34 = load ptr, ptr %2, align 8, !tbaa !215
  %35 = getelementptr inbounds nuw %struct.RangeCoder, ptr %34, i32 0, i32 9
  %36 = load i32, ptr %35, align 8, !tbaa !224
  %37 = add nsw i32 %36, 1
  store i32 %37, ptr %35, align 8, !tbaa !224
  br label %38

38:                                               ; preds = %33, %18
  ret void
}

; Function Attrs: inlinehint nounwind uwtable
define internal i32 @get_rac(ptr noundef %0, ptr noundef %1) #6 {
  %3 = alloca i32, align 4
  %4 = alloca ptr, align 8
  %5 = alloca ptr, align 8
  %6 = alloca i32, align 4
  %7 = alloca i32, align 4
  store ptr %0, ptr %4, align 8, !tbaa !215
  store ptr %1, ptr %5, align 8, !tbaa !151
  call void @llvm.lifetime.start.p0(i64 4, ptr %6) #13
  %8 = load ptr, ptr %4, align 8, !tbaa !215
  %9 = getelementptr inbounds nuw %struct.RangeCoder, ptr %8, i32 0, i32 1
  %10 = load i32, ptr %9, align 4, !tbaa !219
  %11 = load ptr, ptr %5, align 8, !tbaa !151
  %12 = load i8, ptr %11, align 1, !tbaa !132
  %13 = zext i8 %12 to i32
  %14 = mul nsw i32 %10, %13
  %15 = ashr i32 %14, 8
  store i32 %15, ptr %6, align 4, !tbaa !57
  %16 = load i32, ptr %6, align 4, !tbaa !57
  %17 = load ptr, ptr %4, align 8, !tbaa !215
  %18 = getelementptr inbounds nuw %struct.RangeCoder, ptr %17, i32 0, i32 1
  %19 = load i32, ptr %18, align 4, !tbaa !219
  %20 = sub nsw i32 %19, %16
  store i32 %20, ptr %18, align 4, !tbaa !219
  %21 = load ptr, ptr %4, align 8, !tbaa !215
  %22 = getelementptr inbounds nuw %struct.RangeCoder, ptr %21, i32 0, i32 0
  %23 = load i32, ptr %22, align 8, !tbaa !221
  %24 = load ptr, ptr %4, align 8, !tbaa !215
  %25 = getelementptr inbounds nuw %struct.RangeCoder, ptr %24, i32 0, i32 1
  %26 = load i32, ptr %25, align 4, !tbaa !219
  %27 = icmp slt i32 %23, %26
  br i1 %27, label %28, label %44

28:                                               ; preds = %2
  %29 = load ptr, ptr %4, align 8, !tbaa !215
  %30 = getelementptr inbounds nuw %struct.RangeCoder, ptr %29, i32 0, i32 4
  %31 = load ptr, ptr %5, align 8, !tbaa !151
  %32 = load i8, ptr %31, align 1, !tbaa !132
  %33 = zext i8 %32 to i64
  %34 = getelementptr inbounds nuw [256 x i8], ptr %30, i64 0, i64 %33
  %35 = load i8, ptr %34, align 1, !tbaa !132
  %36 = load ptr, ptr %5, align 8, !tbaa !151
  store i8 %35, ptr %36, align 1, !tbaa !132
  %37 = load ptr, ptr %4, align 8, !tbaa !215
  %38 = getelementptr inbounds nuw %struct.RangeCoder, ptr %37, i32 0, i32 1
  %39 = load i32, ptr %38, align 4, !tbaa !219
  %40 = icmp slt i32 %39, 256
  br i1 %40, label %41, label %43

41:                                               ; preds = %28
  %42 = load ptr, ptr %4, align 8, !tbaa !215
  call void @refill(ptr noundef %42)
  br label %43

43:                                               ; preds = %41, %28
  store i32 0, ptr %3, align 4
  store i32 1, ptr %7, align 4
  br label %70

44:                                               ; preds = %2
  %45 = load ptr, ptr %4, align 8, !tbaa !215
  %46 = getelementptr inbounds nuw %struct.RangeCoder, ptr %45, i32 0, i32 1
  %47 = load i32, ptr %46, align 4, !tbaa !219
  %48 = load ptr, ptr %4, align 8, !tbaa !215
  %49 = getelementptr inbounds nuw %struct.RangeCoder, ptr %48, i32 0, i32 0
  %50 = load i32, ptr %49, align 8, !tbaa !221
  %51 = sub nsw i32 %50, %47
  store i32 %51, ptr %49, align 8, !tbaa !221
  %52 = load ptr, ptr %4, align 8, !tbaa !215
  %53 = getelementptr inbounds nuw %struct.RangeCoder, ptr %52, i32 0, i32 5
  %54 = load ptr, ptr %5, align 8, !tbaa !151
  %55 = load i8, ptr %54, align 1, !tbaa !132
  %56 = zext i8 %55 to i64
  %57 = getelementptr inbounds nuw [256 x i8], ptr %53, i64 0, i64 %56
  %58 = load i8, ptr %57, align 1, !tbaa !132
  %59 = load ptr, ptr %5, align 8, !tbaa !151
  store i8 %58, ptr %59, align 1, !tbaa !132
  %60 = load i32, ptr %6, align 4, !tbaa !57
  %61 = load ptr, ptr %4, align 8, !tbaa !215
  %62 = getelementptr inbounds nuw %struct.RangeCoder, ptr %61, i32 0, i32 1
  store i32 %60, ptr %62, align 4, !tbaa !219
  %63 = load ptr, ptr %4, align 8, !tbaa !215
  %64 = getelementptr inbounds nuw %struct.RangeCoder, ptr %63, i32 0, i32 1
  %65 = load i32, ptr %64, align 4, !tbaa !219
  %66 = icmp slt i32 %65, 256
  br i1 %66, label %67, label %69

67:                                               ; preds = %44
  %68 = load ptr, ptr %4, align 8, !tbaa !215
  call void @refill(ptr noundef %68)
  br label %69

69:                                               ; preds = %67, %44
  store i32 1, ptr %3, align 4
  store i32 1, ptr %7, align 4
  br label %70

70:                                               ; preds = %69, %43
  call void @llvm.lifetime.end.p0(i64 4, ptr %6) #13
  %71 = load i32, ptr %3, align 4
  ret i32 %71
}

; Function Attrs: inlinehint nounwind uwtable
define internal i32 @get_ffv1_unsigned_symbol(ptr noundef %0, ptr noundef %1) #6 {
  %3 = alloca i32, align 4
  %4 = alloca ptr, align 8
  %5 = alloca ptr, align 8
  %6 = alloca i32, align 4
  %7 = alloca i32, align 4
  %8 = alloca i32, align 4
  %9 = alloca i32, align 4
  store ptr %0, ptr %4, align 8, !tbaa !215
  store ptr %1, ptr %5, align 8, !tbaa !151
  %10 = load ptr, ptr %4, align 8, !tbaa !215
  %11 = load ptr, ptr %5, align 8, !tbaa !151
  %12 = getelementptr inbounds i8, ptr %11, i64 0
  %13 = call i32 @get_rac(ptr noundef %10, ptr noundef %12)
  %14 = icmp ne i32 %13, 0
  br i1 %14, label %15, label %16

15:                                               ; preds = %2
  store i32 0, ptr %3, align 4
  br label %69

16:                                               ; preds = %2
  call void @llvm.lifetime.start.p0(i64 4, ptr %6) #13
  call void @llvm.lifetime.start.p0(i64 4, ptr %7) #13
  call void @llvm.lifetime.start.p0(i64 4, ptr %8) #13
  store i32 0, ptr %7, align 4, !tbaa !57
  br label %17

17:                                               ; preds = %38, %16
  %18 = load ptr, ptr %4, align 8, !tbaa !215
  %19 = load ptr, ptr %5, align 8, !tbaa !151
  %20 = getelementptr inbounds i8, ptr %19, i64 1
  %21 = load i32, ptr %7, align 4, !tbaa !57
  %22 = icmp sgt i32 %21, 9
  br i1 %22, label %23, label %24

23:                                               ; preds = %17
  br label %26

24:                                               ; preds = %17
  %25 = load i32, ptr %7, align 4, !tbaa !57
  br label %26

26:                                               ; preds = %24, %23
  %27 = phi i32 [ 9, %23 ], [ %25, %24 ]
  %28 = sext i32 %27 to i64
  %29 = getelementptr inbounds i8, ptr %20, i64 %28
  %30 = call i32 @get_rac(ptr noundef %18, ptr noundef %29)
  %31 = icmp ne i32 %30, 0
  br i1 %31, label %32, label %39

32:                                               ; preds = %26
  %33 = load i32, ptr %7, align 4, !tbaa !57
  %34 = add nsw i32 %33, 1
  store i32 %34, ptr %7, align 4, !tbaa !57
  %35 = load i32, ptr %7, align 4, !tbaa !57
  %36 = icmp sgt i32 %35, 31
  br i1 %36, label %37, label %38

37:                                               ; preds = %32
  store i32 -1094995529, ptr %3, align 4
  store i32 1, ptr %9, align 4
  br label %68

38:                                               ; preds = %32
  br label %17, !llvm.loop !217

39:                                               ; preds = %26
  store i32 1, ptr %8, align 4, !tbaa !57
  %40 = load i32, ptr %7, align 4, !tbaa !57
  %41 = sub nsw i32 %40, 1
  store i32 %41, ptr %6, align 4, !tbaa !57
  br label %42

42:                                               ; preds = %63, %39
  %43 = load i32, ptr %6, align 4, !tbaa !57
  %44 = icmp sge i32 %43, 0
  br i1 %44, label %45, label %66

45:                                               ; preds = %42
  %46 = load i32, ptr %8, align 4, !tbaa !57
  %47 = load ptr, ptr %4, align 8, !tbaa !215
  %48 = load ptr, ptr %5, align 8, !tbaa !151
  %49 = getelementptr inbounds i8, ptr %48, i64 22
  %50 = load i32, ptr %6, align 4, !tbaa !57
  %51 = icmp sgt i32 %50, 9
  br i1 %51, label %52, label %53

52:                                               ; preds = %45
  br label %55

53:                                               ; preds = %45
  %54 = load i32, ptr %6, align 4, !tbaa !57
  br label %55

55:                                               ; preds = %53, %52
  %56 = phi i32 [ 9, %52 ], [ %54, %53 ]
  %57 = sext i32 %56 to i64
  %58 = getelementptr inbounds i8, ptr %49, i64 %57
  %59 = call i32 @get_rac(ptr noundef %47, ptr noundef %58)
  %60 = add i32 %46, %59
  %61 = load i32, ptr %8, align 4, !tbaa !57
  %62 = add i32 %61, %60
  store i32 %62, ptr %8, align 4, !tbaa !57
  br label %63

63:                                               ; preds = %55
  %64 = load i32, ptr %6, align 4, !tbaa !57
  %65 = add nsw i32 %64, -1
  store i32 %65, ptr %6, align 4, !tbaa !57
  br label %42, !llvm.loop !218

66:                                               ; preds = %42
  %67 = load i32, ptr %8, align 4, !tbaa !57
  store i32 %67, ptr %3, align 4
  store i32 1, ptr %9, align 4
  br label %68

68:                                               ; preds = %66, %37
  call void @llvm.lifetime.end.p0(i64 4, ptr %8) #13
  call void @llvm.lifetime.end.p0(i64 4, ptr %7) #13
  call void @llvm.lifetime.end.p0(i64 4, ptr %6) #13
  br label %69

69:                                               ; preds = %68, %15
  %70 = load i32, ptr %3, align 4
  ret i32 %70
}