; Function Attrs: inlinehint nofree norecurse nosync nounwind memory(read, argmem: readwrite, inaccessiblemem: none) uwtable
define internal fastcc i32 @get_ffv1_unsigned_symbol(ptr noundef nonnull captures(none) %0, ptr noundef nonnull captures(none) %1) unnamed_addr #5 {
  %3 = getelementptr inbounds nuw i8, ptr %0, i64 4
  %4 = load i32, ptr %3, align 4, !tbaa !98
  %5 = load i8, ptr %1, align 1, !tbaa !54
  %6 = zext i8 %5 to i32
  %7 = mul nsw i32 %4, %6
  %8 = ashr i32 %7, 8
  %9 = sub nsw i32 %4, %8
  store i32 %9, ptr %3, align 4, !tbaa !98
  %10 = load i32, ptr %0, align 8, !tbaa !100
  %11 = icmp slt i32 %10, %9
  br i1 %11, label %12, label %38

12:                                               ; preds = %2
  %13 = getelementptr inbounds nuw i8, ptr %0, i64 16
  %14 = load i8, ptr %1, align 1, !tbaa !54
  %15 = zext i8 %14 to i64
  %16 = getelementptr inbounds nuw [256 x i8], ptr %13, i64 0, i64 %15
  %17 = load i8, ptr %16, align 1, !tbaa !54
  store i8 %17, ptr %1, align 1, !tbaa !54
  %18 = load i32, ptr %3, align 4, !tbaa !98
  %19 = icmp slt i32 %18, 256
  br i1 %19, label %20, label %get_rac.exit

20:                                               ; preds = %12
  %21 = shl i32 %18, 8
  store i32 %21, ptr %3, align 4, !tbaa !98
  %22 = load i32, ptr %0, align 8, !tbaa !100
  %23 = shl i32 %22, 8
  store i32 %23, ptr %0, align 8, !tbaa !100
  %24 = getelementptr inbounds nuw i8, ptr %0, i64 536
  %25 = load ptr, ptr %24, align 8, !tbaa !101
  %26 = getelementptr inbounds nuw i8, ptr %0, i64 544
  %27 = load ptr, ptr %26, align 8, !tbaa !102
  %28 = icmp ult ptr %25, %27
  br i1 %28, label %29, label %34

29:                                               ; preds = %20
  %30 = load i8, ptr %25, align 1, !tbaa !54
  %31 = zext i8 %30 to i32
  %32 = or disjoint i32 %23, %31
  store i32 %32, ptr %0, align 8, !tbaa !100
  %33 = getelementptr inbounds nuw i8, ptr %25, i64 1
  store ptr %33, ptr %24, align 8, !tbaa !101
  br label %get_rac.exit

34:                                               ; preds = %20
  %35 = getelementptr inbounds nuw i8, ptr %0, i64 552
  %36 = load i32, ptr %35, align 8, !tbaa !103
  %37 = add nsw i32 %36, 1
  store i32 %37, ptr %35, align 8, !tbaa !103
  br label %get_rac.exit

38:                                               ; preds = %2
  %39 = sub nsw i32 %10, %9
  store i32 %39, ptr %0, align 8, !tbaa !100
  %40 = getelementptr inbounds nuw i8, ptr %0, i64 272
  %41 = load i8, ptr %1, align 1, !tbaa !54
  %42 = zext i8 %41 to i64
  %43 = getelementptr inbounds nuw [256 x i8], ptr %40, i64 0, i64 %42
  %44 = load i8, ptr %43, align 1, !tbaa !54
  store i8 %44, ptr %1, align 1, !tbaa !54
  store i32 %8, ptr %3, align 4, !tbaa !98
  %45 = icmp slt i32 %8, 256
  br i1 %45, label %46, label %get_rac.exit.thread

46:                                               ; preds = %38
  %47 = and i32 %7, -256
  store i32 %47, ptr %3, align 4, !tbaa !98
  %48 = load i32, ptr %0, align 8, !tbaa !100
  %49 = shl i32 %48, 8
  store i32 %49, ptr %0, align 8, !tbaa !100
  %50 = getelementptr inbounds nuw i8, ptr %0, i64 536
  %51 = load ptr, ptr %50, align 8, !tbaa !101
  %52 = getelementptr inbounds nuw i8, ptr %0, i64 544
  %53 = load ptr, ptr %52, align 8, !tbaa !102
  %54 = icmp ult ptr %51, %53
  br i1 %54, label %55, label %60

55:                                               ; preds = %46
  %56 = load i8, ptr %51, align 1, !tbaa !54
  %57 = zext i8 %56 to i32
  %58 = or disjoint i32 %49, %57
  store i32 %58, ptr %0, align 8, !tbaa !100
  %59 = getelementptr inbounds nuw i8, ptr %51, i64 1
  store ptr %59, ptr %50, align 8, !tbaa !101
  br label %get_rac.exit.thread

60:                                               ; preds = %46
  %61 = getelementptr inbounds nuw i8, ptr %0, i64 552
  %62 = load i32, ptr %61, align 8, !tbaa !103
  %63 = add nsw i32 %62, 1
  store i32 %63, ptr %61, align 8, !tbaa !103
  br label %get_rac.exit.thread

get_rac.exit:                                     ; preds = %12, %29, %34
  %64 = phi i32 [ %18, %12 ], [ %21, %29 ], [ %21, %34 ]
  %65 = getelementptr inbounds nuw i8, ptr %1, i64 1
  %66 = getelementptr inbounds nuw i8, ptr %0, i64 272
  %67 = getelementptr inbounds nuw i8, ptr %0, i64 536
  %68 = getelementptr inbounds nuw i8, ptr %0, i64 544
  %69 = getelementptr inbounds nuw i8, ptr %0, i64 552
  br label %70

70:                                               ; preds = %get_rac.exit, %128
  %71 = phi i32 [ %129, %128 ], [ %64, %get_rac.exit ]
  %.018 = phi i32 [ %130, %128 ], [ 0, %get_rac.exit ]
  %72 = tail call i32 @llvm.umin.i32(i32 %.018, i32 9)
  %73 = zext nneg i32 %72 to i64
  %74 = getelementptr inbounds nuw i8, ptr %65, i64 %73
  %75 = load i8, ptr %74, align 1, !tbaa !54
  %76 = zext i8 %75 to i32
  %77 = mul nsw i32 %71, %76
  %78 = ashr i32 %77, 8
  %79 = sub nsw i32 %71, %78
  store i32 %79, ptr %3, align 4, !tbaa !98
  %80 = load i32, ptr %0, align 8, !tbaa !100
  %81 = icmp slt i32 %80, %79
  br i1 %81, label %82, label %104

82:                                               ; preds = %70
  %83 = load i8, ptr %74, align 1, !tbaa !54
  %84 = zext i8 %83 to i64
  %85 = getelementptr inbounds nuw [256 x i8], ptr %13, i64 0, i64 %84
  %86 = load i8, ptr %85, align 1, !tbaa !54
  store i8 %86, ptr %74, align 1, !tbaa !54
  %87 = load i32, ptr %3, align 4, !tbaa !98
  %88 = icmp slt i32 %87, 256
  br i1 %88, label %89, label %get_rac.exit24

89:                                               ; preds = %82
  %90 = shl i32 %87, 8
  store i32 %90, ptr %3, align 4, !tbaa !98
  %91 = load i32, ptr %0, align 8, !tbaa !100
  %92 = shl i32 %91, 8
  store i32 %92, ptr %0, align 8, !tbaa !100
  %93 = load ptr, ptr %67, align 8, !tbaa !101
  %94 = load ptr, ptr %68, align 8, !tbaa !102
  %95 = icmp ult ptr %93, %94
  br i1 %95, label %96, label %101

96:                                               ; preds = %89
  %97 = load i8, ptr %93, align 1, !tbaa !54
  %98 = zext i8 %97 to i32
  %99 = or disjoint i32 %92, %98
  store i32 %99, ptr %0, align 8, !tbaa !100
  %100 = getelementptr inbounds nuw i8, ptr %93, i64 1
  store ptr %100, ptr %67, align 8, !tbaa !101
  br label %get_rac.exit24

101:                                              ; preds = %89
  %102 = load i32, ptr %69, align 8, !tbaa !103
  %103 = add nsw i32 %102, 1
  store i32 %103, ptr %69, align 8, !tbaa !103
  br label %get_rac.exit24

104:                                              ; preds = %70
  %105 = sub nsw i32 %80, %79
  store i32 %105, ptr %0, align 8, !tbaa !100
  %106 = load i8, ptr %74, align 1, !tbaa !54
  %107 = zext i8 %106 to i64
  %108 = getelementptr inbounds nuw [256 x i8], ptr %66, i64 0, i64 %107
  %109 = load i8, ptr %108, align 1, !tbaa !54
  store i8 %109, ptr %74, align 1, !tbaa !54
  store i32 %78, ptr %3, align 4, !tbaa !98
  %110 = icmp slt i32 %78, 256
  br i1 %110, label %111, label %128

111:                                              ; preds = %104
  %112 = and i32 %77, -256
  store i32 %112, ptr %3, align 4, !tbaa !98
  %113 = load i32, ptr %0, align 8, !tbaa !100
  %114 = shl i32 %113, 8
  store i32 %114, ptr %0, align 8, !tbaa !100
  %115 = load ptr, ptr %67, align 8, !tbaa !101
  %116 = load ptr, ptr %68, align 8, !tbaa !102
  %117 = icmp ult ptr %115, %116
  br i1 %117, label %118, label %123

118:                                              ; preds = %111
  %119 = load i8, ptr %115, align 1, !tbaa !54
  %120 = zext i8 %119 to i32
  %121 = or disjoint i32 %114, %120
  store i32 %121, ptr %0, align 8, !tbaa !100
  %122 = getelementptr inbounds nuw i8, ptr %115, i64 1
  store ptr %122, ptr %67, align 8, !tbaa !101
  br label %128

123:                                              ; preds = %111
  %124 = load i32, ptr %69, align 8, !tbaa !103
  %125 = add nsw i32 %124, 1
  store i32 %125, ptr %69, align 8, !tbaa !103
  br label %128

get_rac.exit24:                                   ; preds = %82, %96, %101
  %126 = phi i32 [ %87, %82 ], [ %90, %96 ], [ %90, %101 ]
  %.not = icmp eq i32 %.018, 0
  br i1 %.not, label %get_rac.exit.thread, label %.lr.ph

.lr.ph:                                           ; preds = %get_rac.exit24
  %127 = getelementptr inbounds nuw i8, ptr %1, i64 22
  br label %131

128:                                              ; preds = %104, %118, %123
  %129 = phi i32 [ %78, %104 ], [ %112, %118 ], [ %112, %123 ]
  %130 = add nuw nsw i32 %.018, 1
  %exitcond = icmp eq i32 %130, 32
  br i1 %exitcond, label %get_rac.exit.thread, label %70, !llvm.loop !237

131:                                              ; preds = %.lr.ph, %get_rac.exit26
  %132 = phi i32 [ %126, %.lr.ph ], [ %187, %get_rac.exit26 ]
  %.035 = phi i32 [ 1, %.lr.ph ], [ %188, %get_rac.exit26 ]
  %.019.in34 = phi i32 [ %.018, %.lr.ph ], [ %.019, %get_rac.exit26 ]
  %.019 = add nsw i32 %.019.in34, -1
  %133 = tail call i32 @llvm.umin.i32(i32 %.019, i32 9)
  %134 = zext nneg i32 %133 to i64
  %135 = getelementptr inbounds nuw i8, ptr %127, i64 %134
  %136 = load i8, ptr %135, align 1, !tbaa !54
  %137 = zext i8 %136 to i32
  %138 = mul nsw i32 %132, %137
  %139 = ashr i32 %138, 8
  %140 = sub nsw i32 %132, %139
  store i32 %140, ptr %3, align 4, !tbaa !98
  %141 = load i32, ptr %0, align 8, !tbaa !100
  %142 = icmp slt i32 %141, %140
  br i1 %142, label %143, label %165

143:                                              ; preds = %131
  %144 = load i8, ptr %135, align 1, !tbaa !54
  %145 = zext i8 %144 to i64
  %146 = getelementptr inbounds nuw [256 x i8], ptr %13, i64 0, i64 %145
  %147 = load i8, ptr %146, align 1, !tbaa !54
  store i8 %147, ptr %135, align 1, !tbaa !54
  %148 = load i32, ptr %3, align 4, !tbaa !98
  %149 = icmp slt i32 %148, 256
  br i1 %149, label %150, label %get_rac.exit26

150:                                              ; preds = %143
  %151 = shl i32 %148, 8
  store i32 %151, ptr %3, align 4, !tbaa !98
  %152 = load i32, ptr %0, align 8, !tbaa !100
  %153 = shl i32 %152, 8
  store i32 %153, ptr %0, align 8, !tbaa !100
  %154 = load ptr, ptr %67, align 8, !tbaa !101
  %155 = load ptr, ptr %68, align 8, !tbaa !102
  %156 = icmp ult ptr %154, %155
  br i1 %156, label %157, label %162

157:                                              ; preds = %150
  %158 = load i8, ptr %154, align 1, !tbaa !54
  %159 = zext i8 %158 to i32
  %160 = or disjoint i32 %153, %159
  store i32 %160, ptr %0, align 8, !tbaa !100
  %161 = getelementptr inbounds nuw i8, ptr %154, i64 1
  store ptr %161, ptr %67, align 8, !tbaa !101
  br label %get_rac.exit26

162:                                              ; preds = %150
  %163 = load i32, ptr %69, align 8, !tbaa !103
  %164 = add nsw i32 %163, 1
  store i32 %164, ptr %69, align 8, !tbaa !103
  br label %get_rac.exit26

165:                                              ; preds = %131
  %166 = sub nsw i32 %141, %140
  store i32 %166, ptr %0, align 8, !tbaa !100
  %167 = load i8, ptr %135, align 1, !tbaa !54
  %168 = zext i8 %167 to i64
  %169 = getelementptr inbounds nuw [256 x i8], ptr %66, i64 0, i64 %168
  %170 = load i8, ptr %169, align 1, !tbaa !54
  store i8 %170, ptr %135, align 1, !tbaa !54
  store i32 %139, ptr %3, align 4, !tbaa !98
  %171 = icmp slt i32 %139, 256
  br i1 %171, label %172, label %get_rac.exit26

172:                                              ; preds = %165
  %173 = and i32 %138, -256
  store i32 %173, ptr %3, align 4, !tbaa !98
  %174 = load i32, ptr %0, align 8, !tbaa !100
  %175 = shl i32 %174, 8
  store i32 %175, ptr %0, align 8, !tbaa !100
  %176 = load ptr, ptr %67, align 8, !tbaa !101
  %177 = load ptr, ptr %68, align 8, !tbaa !102
  %178 = icmp ult ptr %176, %177
  br i1 %178, label %179, label %184

179:                                              ; preds = %172
  %180 = load i8, ptr %176, align 1, !tbaa !54
  %181 = zext i8 %180 to i32
  %182 = or disjoint i32 %175, %181
  store i32 %182, ptr %0, align 8, !tbaa !100
  %183 = getelementptr inbounds nuw i8, ptr %176, i64 1
  store ptr %183, ptr %67, align 8, !tbaa !101
  br label %get_rac.exit26

184:                                              ; preds = %172
  %185 = load i32, ptr %69, align 8, !tbaa !103
  %186 = add nsw i32 %185, 1
  store i32 %186, ptr %69, align 8, !tbaa !103
  br label %get_rac.exit26

get_rac.exit26:                                   ; preds = %143, %157, %162, %165, %179, %184
  %187 = phi i32 [ %148, %143 ], [ %139, %165 ], [ %151, %157 ], [ %151, %162 ], [ %173, %179 ], [ %173, %184 ]
  %.0.i25 = phi i32 [ 0, %143 ], [ 1, %165 ], [ 0, %157 ], [ 0, %162 ], [ 1, %179 ], [ 1, %184 ]
  %reass.add = shl i32 %.035, 1
  %188 = or disjoint i32 %.0.i25, %reass.add
  %189 = icmp sgt i32 %.019.in34, 1
  br i1 %189, label %131, label %get_rac.exit.thread, !llvm.loop !238

get_rac.exit.thread:                              ; preds = %128, %get_rac.exit26, %get_rac.exit24, %60, %55, %38
  %.020 = phi i32 [ 0, %38 ], [ 0, %55 ], [ 0, %60 ], [ 1, %get_rac.exit24 ], [ %188, %get_rac.exit26 ], [ -1094995529, %128 ]
  ret i32 %.020
}